; Function Attrs: mustprogress nounwind uwtable
define hidden void @_ZN5Forte13register_stubEPKcPhS2_(ptr noundef %0, ptr noundef %1, ptr noundef %2) local_unnamed_addr #0 align 2 {
  %.not = icmp eq ptr @collector_func_load, null
  br i1 %.not, label %9, label %4

4:                                                ; preds = %3
  %5 = ptrtoint ptr %2 to i64
  %6 = ptrtoint ptr %1 to i64
  %7 = sub i64 %5, %6
  %8 = trunc i64 %7 to i32
  tail call void @collector_func_load(ptr noundef %0, ptr noundef null, ptr noundef null, ptr noundef %1, i32 noundef %8, i32 noundef 0, ptr noundef null) #8
  br label %9

9:                                                ; preds = %3, %4
  ret void
}